; Function Attrs: nounwind uwtable
define nonnull ptr @l___private_Std_Internal_Rat_0__Std_Internal_decEqRat____x40_Std_Internal_Rat___hyg_111____boxed(ptr noundef %0, ptr noundef %1) local_unnamed_addr #0 {
  %3 = getelementptr inbounds nuw i8, ptr %0, i64 8
  %4 = load ptr, ptr %3, align 8, !tbaa !4
  %5 = getelementptr inbounds nuw i8, ptr %0, i64 16
  %6 = load ptr, ptr %5, align 8, !tbaa !4
  %7 = getelementptr inbounds nuw i8, ptr %1, i64 8
  %8 = load ptr, ptr %7, align 8, !tbaa !4
  %9 = getelementptr inbounds nuw i8, ptr %1, i64 16
  %10 = load ptr, ptr %9, align 8, !tbaa !4
  %11 = ptrtoint ptr %4 to i64
  %12 = ptrtoint ptr %8 to i64
  %13 = and i64 %11, 1
  %14 = and i64 %13, %12
  %or.cond.not.i.i.i = icmp eq i64 %14, 0
  br i1 %or.cond.not.i.i.i, label %lean_int_dec_eq.exit.i, label %15, !prof !8

15:                                               ; preds = %2
  %16 = icmp eq ptr %4, %8
  br i1 %16, label %18, label %l___private_Std_Internal_Rat_0__Std_Internal_decEqRat____x40_Std_Internal_Rat___hyg_111_.exit

lean_int_dec_eq.exit.i:                           ; preds = %2
  %17 = tail call zeroext i1 @lean_int_big_eq(ptr noundef %4, ptr noundef %8) #5
  br i1 %17, label %18, label %l___private_Std_Internal_Rat_0__Std_Internal_decEqRat____x40_Std_Internal_Rat___hyg_111_.exit

18:                                               ; preds = %lean_int_dec_eq.exit.i, %15
  %19 = ptrtoint ptr %6 to i64
  %20 = and i64 %19, 1
  %21 = icmp ne i64 %20, 0
  %22 = ptrtoint ptr %10 to i64
  %23 = and i64 %22, 1
  %24 = icmp ne i64 %23, 0
  %or.cond.i = select i1 %21, i1 %24, i1 false
  br i1 %or.cond.i, label %25, label %.critedge.i.i, !prof !9

25:                                               ; preds = %18
  %26 = icmp eq ptr %6, %10
  br label %lean_nat_eq.exit.i

.critedge.i.i:                                    ; preds = %18
  %27 = tail call zeroext i1 @lean_nat_big_eq(ptr noundef %6, ptr noundef %10) #5
  br label %lean_nat_eq.exit.i

lean_nat_eq.exit.i:                               ; preds = %.critedge.i.i, %25
  %.0.i.i = phi i1 [ %26, %25 ], [ %27, %.critedge.i.i ]
  %28 = select i1 %.0.i.i, i64 3, i64 1
  br label %l___private_Std_Internal_Rat_0__Std_Internal_decEqRat____x40_Std_Internal_Rat___hyg_111_.exit

l___private_Std_Internal_Rat_0__Std_Internal_decEqRat____x40_Std_Internal_Rat___hyg_111_.exit: ; preds = %15, %lean_int_dec_eq.exit.i, %lean_nat_eq.exit.i
  %.0.i = phi i64 [ %28, %lean_nat_eq.exit.i ], [ 1, %lean_int_dec_eq.exit.i ], [ 1, %15 ]
  %29 = ptrtoint ptr %1 to i64
  %30 = and i64 %29, 1
  %.not = icmp eq i64 %30, 0
  br i1 %.not, label %31, label %lean_dec.exit5

31:                                               ; preds = %l___private_Std_Internal_Rat_0__Std_Internal_decEqRat____x40_Std_Internal_Rat___hyg_111_.exit
  %32 = load i32, ptr %1, align 4, !tbaa !10
  %33 = icmp sgt i32 %32, 1
  br i1 %33, label %34, label %36, !prof !13

34:                                               ; preds = %31
  %35 = add nsw i32 %32, -1
  store i32 %35, ptr %1, align 4, !tbaa !10
  br label %lean_dec.exit5

36:                                               ; preds = %31
  %.not.i = icmp eq i32 %32, 0
  br i1 %.not.i, label %lean_dec.exit5, label %37

37:                                               ; preds = %36
  tail call void @lean_dec_ref_cold(ptr noundef nonnull %1) #5
  br label %lean_dec.exit5

lean_dec.exit5:                                   ; preds = %37, %36, %34, %l___private_Std_Internal_Rat_0__Std_Internal_decEqRat____x40_Std_Internal_Rat___hyg_111_.exit
  %38 = ptrtoint ptr %0 to i64
  %39 = and i64 %38, 1
  %.not8 = icmp eq i64 %39, 0
  br i1 %.not8, label %40, label %lean_dec.exit

40:                                               ; preds = %lean_dec.exit5
  %41 = load i32, ptr %0, align 4, !tbaa !10
  %42 = icmp sgt i32 %41, 1
  br i1 %42, label %43, label %45, !prof !13

43:                                               ; preds = %40
  %44 = add nsw i32 %41, -1
  store i32 %44, ptr %0, align 4, !tbaa !10
  br label %lean_dec.exit

45:                                               ; preds = %40
  %.not.i6 = icmp eq i32 %41, 0
  br i1 %.not.i6, label %lean_dec.exit, label %46

46:                                               ; preds = %45
  tail call void @lean_dec_ref_cold(ptr noundef nonnull %0) #5
  br label %lean_dec.exit

lean_dec.exit:                                    ; preds = %46, %45, %43, %lean_dec.exit5
  %47 = inttoptr i64 %.0.i to ptr
  ret ptr %47
}